target datalayout = "e-m:e-p270:32:32-p271:32:32-p272:64:64-i64:64-i128:128-f80:128-n8:16:32:64-S128"
target triple = "x86_64-pc-linux-gnu"

%"class.std::shared_ptr" = type { %"class.std::__shared_ptr" }
%"class.std::__shared_ptr" = type { ptr, %"class.std::__shared_count" }
%"class.std::__shared_count" = type { ptr }
%"class.zmq::message_t" = type { %struct.zmq_msg_t }
%struct.zmq_msg_t = type { [64 x i8] }

; Function Attrs: mustprogress nounwind ssp uwtable
define linkonce_odr void @_ZN3zmq9message_tD2Ev(ptr noundef nonnull align 8 dereferenceable(64) %0) unnamed_addr #0 comdat align 2 personality ptr @__gxx_personality_v0 {
  %2 = alloca ptr, align 8
  %3 = alloca i32, align 4
  store ptr %0, ptr %2, align 8, !tbaa !9
  %4 = load ptr, ptr %2, align 8
  call void @llvm.lifetime.start.p0(i64 4, ptr %3) #5
  %5 = getelementptr inbounds nuw %"class.zmq::message_t", ptr %4, i32 0, i32 0
  %6 = invoke i32 @zmq_msg_close(ptr noundef %5)
          to label %7 unwind label %8

7:                                                ; preds = %1
  store i32 %6, ptr %3, align 4, !tbaa !45
  call void @llvm.lifetime.end.p0(i64 4, ptr %3) #5
  ret void

8:                                                ; preds = %1
  %9 = landingpad { ptr, i32 }
          catch ptr null
  %10 = extractvalue { ptr, i32 } %9, 0
  call void @__clang_call_terminate(ptr %10) #31
  unreachable
}

; Function Attrs: mustprogress ssp uwtable
define void @_ZN6open3d2io3rpc10Connection4SendEPKvm(ptr dead_on_unwind noalias writable sret(%"class.std::shared_ptr") align 8 %0, ptr noundef nonnull align 8 dereferenceable(72) %1, ptr noundef %2, i64 noundef %3) unnamed_addr #1 align 2 personality ptr @__gxx_personality_v0 {
  %5 = alloca ptr, align 8
  %6 = alloca ptr, align 8
  %7 = alloca ptr, align 8
  %8 = alloca i64, align 8
  %9 = alloca %"class.zmq::message_t", align 8
  %10 = alloca ptr, align 8
  %11 = alloca i32, align 4
  store ptr %0, ptr %5, align 8
  store ptr %1, ptr %6, align 8, !tbaa !4
  store ptr %2, ptr %7, align 8, !tbaa !15
  store i64 %3, ptr %8, align 8, !tbaa !13
  %12 = load ptr, ptr %6, align 8
  call void @llvm.lifetime.start.p0(i64 64, ptr %9) #5
  %13 = load ptr, ptr %7, align 8, !tbaa !15
  %14 = load i64, ptr %8, align 8, !tbaa !13
  call void @_ZN3zmq9message_tC2EPKvm(ptr noundef nonnull align 8 dereferenceable(64) %9, ptr noundef %13, i64 noundef %14)
  %15 = load ptr, ptr %12, align 8, !tbaa !16
  %16 = getelementptr inbounds ptr, ptr %15, i64 2
  %17 = load ptr, ptr %16, align 8
  invoke void %17(ptr dead_on_unwind writable sret(%"class.std::shared_ptr") align 8 %0, ptr noundef nonnull align 8 dereferenceable(72) %12, ptr noundef nonnull align 8 dereferenceable(64) %9)
          to label %18 unwind label %19

18:                                               ; preds = %4
  call void @_ZN3zmq9message_tD2Ev(ptr noundef nonnull align 8 dereferenceable(64) %9) #5
  call void @llvm.lifetime.end.p0(i64 64, ptr %9) #5
  ret void

19:                                               ; preds = %4
  %20 = landingpad { ptr, i32 }
          cleanup
  %21 = extractvalue { ptr, i32 } %20, 0
  store ptr %21, ptr %10, align 8
  %22 = extractvalue { ptr, i32 } %20, 1
  store i32 %22, ptr %11, align 4
  call void @_ZN3zmq9message_tD2Ev(ptr noundef nonnull align 8 dereferenceable(64) %9) #5
  call void @llvm.lifetime.end.p0(i64 64, ptr %9) #5
  br label %23

23:                                               ; preds = %19
  %24 = load ptr, ptr %10, align 8
  %25 = load i32, ptr %11, align 4
  %26 = insertvalue { ptr, i32 } poison, ptr %24, 0
  %27 = insertvalue { ptr, i32 } %26, i32 %25, 1
  resume { ptr, i32 } %27
}