; Function Attrs: mustprogress ssp uwtable
define void @_ZN6open3d2io3rpc10Connection4SendEPKvm(ptr dead_on_unwind noalias writable sret(%"class.std::shared_ptr") align 8 %0, ptr noundef nonnull align 8 dereferenceable(72) %1, ptr noundef %2, i64 noundef %3) unnamed_addr #1 align 2 personality ptr @__gxx_personality_v0 {
  %5 = alloca %"class.zmq::message_t", align 8
  call void @llvm.lifetime.start.p0(i64 64, ptr nonnull %5) #29
  call void @_ZN3zmq9message_tC2EPKvm(ptr noundef nonnull align 8 dereferenceable(64) %5, ptr noundef %2, i64 noundef %3)
  %6 = load ptr, ptr %1, align 8, !tbaa !11
  %7 = getelementptr inbounds nuw i8, ptr %6, i64 16
  %8 = load ptr, ptr %7, align 8
  invoke void %8(ptr dead_on_unwind writable sret(%"class.std::shared_ptr") align 8 %0, ptr noundef nonnull align 8 dereferenceable(72) %1, ptr noundef nonnull align 8 dereferenceable(64) %5)
          to label %9 unwind label %14

9:                                                ; preds = %4
  %10 = invoke i32 @zmq_msg_close(ptr noundef nonnull align 8 dereferenceable(64) %5)
          to label %_ZN3zmq9message_tD2Ev.exit unwind label %11

11:                                               ; preds = %9
  %12 = landingpad { ptr, i32 }
          catch ptr null
  %13 = extractvalue { ptr, i32 } %12, 0
  call void @__clang_call_terminate(ptr %13) #32
  unreachable

_ZN3zmq9message_tD2Ev.exit:                       ; preds = %9
  call void @llvm.lifetime.end.p0(i64 64, ptr nonnull %5) #29
  ret void

14:                                               ; preds = %4
  %15 = landingpad { ptr, i32 }
          cleanup
  %16 = invoke i32 @zmq_msg_close(ptr noundef nonnull align 8 dereferenceable(64) %5)
          to label %_ZN3zmq9message_tD2Ev.exit4 unwind label %17

17:                                               ; preds = %14
  %18 = landingpad { ptr, i32 }
          catch ptr null
  %19 = extractvalue { ptr, i32 } %18, 0
  call void @__clang_call_terminate(ptr %19) #32
  unreachable

_ZN3zmq9message_tD2Ev.exit4:                      ; preds = %14
  call void @llvm.lifetime.end.p0(i64 64, ptr nonnull %5) #29
  resume { ptr, i32 } %15
}